; Function Attrs: mustprogress ssp uwtable
define void @_ZN6open3d13visualization22ViewControlWithEditing5ScaleEd(ptr noundef nonnull align 16 dereferenceable(881) %0, double noundef %1) unnamed_addr #1 align 2 {
  %3 = getelementptr inbounds nuw i8, ptr %0, i64 880
  %4 = load i8, ptr %3, align 16, !tbaa !16, !range !37, !noundef !38
  %5 = trunc nuw i8 %4 to i1
  br i1 %5, label %7, label %6

6:                                                ; preds = %2
  tail call void @_ZN6open3d13visualization11ViewControl5ScaleEd(ptr noundef nonnull align 16 dereferenceable(728) %0, double noundef %1)
  br label %7

7:                                                ; preds = %6, %2
  ret void
}